; Function Attrs: mustprogress uwtable
define internal void @_ZN8pybind116class_IZ21test_submodule_class_RNS_7module_EE22AliasedHasOpNewDelSizeJZ21test_submodule_class_S2_E24PyAliasedHasOpNewDelSizeEE43dealloc_release_gil_before_calling_cpp_dtorERNS_6detail16value_and_holderE(ptr noundef nonnull readonly align 8 captures(none) dereferenceable(32) %0) #5 align 2 personality ptr @__gxx_personality_v0 {
  %2 = alloca %"struct.pybind11::error_scope", align 8
  call void @llvm.lifetime.start.p0(i64 24, ptr nonnull %2) #35
  %3 = getelementptr inbounds nuw i8, ptr %2, i64 8
  %4 = getelementptr inbounds nuw i8, ptr %2, i64 16
  call void @PyErr_Fetch(ptr noundef nonnull align 8 dereferenceable(24) %2, ptr noundef nonnull %3, ptr noundef nonnull %4)
  %5 = invoke ptr @PyEval_SaveThread()
          to label %6 unwind label %7

6:                                                ; preds = %1
  invoke fastcc void @_ZN8pybind116class_IZ21test_submodule_class_RNS_7module_EE22AliasedHasOpNewDelSizeJZ21test_submodule_class_S2_E24PyAliasedHasOpNewDelSizeEE12dealloc_implERNS_6detail16value_and_holderE(ptr noundef nonnull align 8 dereferenceable(32) %0)
          to label %16 unwind label %9

7:                                                ; preds = %16, %1
  %8 = landingpad { ptr, i32 }
          cleanup
  br label %24

9:                                                ; preds = %6
  %10 = landingpad { ptr, i32 }
          catch ptr null
  %11 = extractvalue { ptr, i32 } %10, 0
  %12 = call ptr @__cxa_begin_catch(ptr %11) #35
  invoke void @PyEval_RestoreThread(ptr noundef %5)
          to label %13 unwind label %14

13:                                               ; preds = %9
  invoke void @__cxa_rethrow() #37
          to label %28 unwind label %14

14:                                               ; preds = %13, %9
  %15 = landingpad { ptr, i32 }
          cleanup
  invoke void @__cxa_end_catch()
          to label %24 unwind label %25

16:                                               ; preds = %6
  invoke void @PyEval_RestoreThread(ptr noundef %5)
          to label %17 unwind label %7

17:                                               ; preds = %16
  %18 = load ptr, ptr %2, align 8, !tbaa !16
  %19 = load ptr, ptr %3, align 8, !tbaa !19
  %20 = load ptr, ptr %4, align 8, !tbaa !20
  invoke void @PyErr_Restore(ptr noundef %18, ptr noundef %19, ptr noundef %20)
          to label %_ZN8pybind1111error_scopeD2Ev.exit unwind label %21

21:                                               ; preds = %17
  %22 = landingpad { ptr, i32 }
          catch ptr null
  %23 = extractvalue { ptr, i32 } %22, 0
  call void @__clang_call_terminate(ptr %23) #36
  unreachable

_ZN8pybind1111error_scopeD2Ev.exit:               ; preds = %17
  call void @llvm.lifetime.end.p0(i64 24, ptr nonnull %2) #35
  ret void

24:                                               ; preds = %14, %7
  %.pn = phi { ptr, i32 } [ %8, %7 ], [ %15, %14 ]
  call void @_ZN8pybind1111error_scopeD2Ev(ptr noundef nonnull align 8 dereferenceable(24) %2) #35
  call void @llvm.lifetime.end.p0(i64 24, ptr nonnull %2) #35
  resume { ptr, i32 } %.pn

25:                                               ; preds = %14
  %26 = landingpad { ptr, i32 }
          catch ptr null
  %27 = extractvalue { ptr, i32 } %26, 0
  call void @__clang_call_terminate(ptr %27) #36
  unreachable

28:                                               ; preds = %13
  unreachable
}